; ModuleID = '15/38.c'
source_filename = "15/38.c"
target datalayout = "e-m:e-p270:32:32-p271:32:32-p272:64:64-i64:64-f80:128-n8:16:32:64-S128"
target triple = "x86_64-pc-linux-gnu"

@.str = private unnamed_addr constant [3 x i8] c"%d\00", align 1
@.str.1 = private unnamed_addr constant [4 x i8] c"%d\0A\00", align 1

; Function Attrs: noinline nounwind uwtable
define dso_local i32 @main(i32 %0, i8** %1) #0 {
  %3 = alloca i32, align 4
  %4 = alloca i32, align 4
  %5 = alloca i8**, align 8
  %6 = alloca i32, align 4
  %7 = alloca [100 x [100 x i32]], align 16
  %8 = alloca i32, align 4
  %9 = alloca i32, align 4
  %10 = alloca i32, align 4
  %11 = alloca i32, align 4
  %12 = alloca i32, align 4
  %13 = alloca i32, align 4
  %14 = alloca i32, align 4
  store i32 0, i32* %3, align 4
  store i32 %0, i32* %4, align 4
  store i8** %1, i8*** %5, align 8
  %15 = call i32 (i8*, ...) @__isoc99_scanf(i8* getelementptr inbounds ([3 x i8], [3 x i8]* @.str, i64 0, i64 0), i32* %6)
  store i32 0, i32* %8, align 4
  br label %16

16:                                               ; preds = %51, %2
  %17 = load i32, i32* %8, align 4
  %18 = load i32, i32* %6, align 4
  %19 = sub nsw i32 %18, 1
  %20 = icmp sle i32 %17, %19
  br i1 %20, label %21, label %54

21:                                               ; preds = %16
  store i32 0, i32* %9, align 4
  br label %22

22:                                               ; preds = %47, %21
  %23 = load i32, i32* %9, align 4
  %24 = load i32, i32* %6, align 4
  %25 = sub nsw i32 %24, 1
  %26 = icmp sle i32 %23, %25
  br i1 %26, label %27, label %50

27:                                               ; preds = %22
  %28 = load i32, i32* %8, align 4
  %29 = sext i32 %28 to i64
  %30 = getelementptr inbounds [100 x [100 x i32]], [100 x [100 x i32]]* %7, i64 0, i64 %29
  %31 = load i32, i32* %9, align 4
  %32 = sext i32 %31 to i64
  %33 = getelementptr inbounds [100 x i32], [100 x i32]* %30, i64 0, i64 %32
  %34 = call i32 (i8*, ...) @__isoc99_scanf(i8* getelementptr inbounds ([3 x i8], [3 x i8]* @.str, i64 0, i64 0), i32* %33)
  %35 = load i32, i32* %8, align 4
  %36 = sext i32 %35 to i64
  %37 = getelementptr inbounds [100 x [100 x i32]], [100 x [100 x i32]]* %7, i64 0, i64 %36
  %38 = load i32, i32* %9, align 4
  %39 = sext i32 %38 to i64
  %40 = getelementptr inbounds [100 x i32], [100 x i32]* %37, i64 0, i64 %39
  %41 = load i32, i32* %40, align 4
  %42 = icmp eq i32 %41, 0
  br i1 %42, label %43, label %46

43:                                               ; preds = %27
  %44 = load i32, i32* %8, align 4
  store i32 %44, i32* %12, align 4
  %45 = load i32, i32* %9, align 4
  store i32 %45, i32* %13, align 4
  br label %46

46:                                               ; preds = %43, %27
  br label %47

47:                                               ; preds = %46
  %48 = load i32, i32* %9, align 4
  %49 = add nsw i32 %48, 1
  store i32 %49, i32* %9, align 4
  br label %22

50:                                               ; preds = %22
  br label %51

51:                                               ; preds = %50
  %52 = load i32, i32* %8, align 4
  %53 = add nsw i32 %52, 1
  store i32 %53, i32* %8, align 4
  br label %16

54:                                               ; preds = %16
  %55 = load i32, i32* %6, align 4
  %56 = sub nsw i32 %55, 1
  store i32 %56, i32* %8, align 4
  br label %57

57:                                               ; preds = %83, %54
  %58 = load i32, i32* %8, align 4
  %59 = icmp sge i32 %58, 0
  br i1 %59, label %60, label %86

60:                                               ; preds = %57
  %61 = load i32, i32* %6, align 4
  %62 = sub nsw i32 %61, 1
  store i32 %62, i32* %9, align 4
  br label %63

63:                                               ; preds = %79, %60
  %64 = load i32, i32* %9, align 4
  %65 = icmp sge i32 %64, 0
  br i1 %65, label %66, label %82

66:                                               ; preds = %63
  %67 = load i32, i32* %8, align 4
  %68 = sext i32 %67 to i64
  %69 = getelementptr inbounds [100 x [100 x i32]], [100 x [100 x i32]]* %7, i64 0, i64 %68
  %70 = load i32, i32* %9, align 4
  %71 = sext i32 %70 to i64
  %72 = getelementptr inbounds [100 x i32], [100 x i32]* %69, i64 0, i64 %71
  %73 = load i32, i32* %72, align 4
  %74 = icmp eq i32 %73, 0
  br i1 %74, label %75, label %78

75:                                               ; preds = %66
  %76 = load i32, i32* %8, align 4
  store i32 %76, i32* %10, align 4
  %77 = load i32, i32* %9, align 4
  store i32 %77, i32* %11, align 4
  br label %78

78:                                               ; preds = %75, %66
  br label %79

79:                                               ; preds = %78
  %80 = load i32, i32* %9, align 4
  %81 = add nsw i32 %80, -1
  store i32 %81, i32* %9, align 4
  br label %63

82:                                               ; preds = %63
  br label %83

83:                                               ; preds = %82
  %84 = load i32, i32* %8, align 4
  %85 = add nsw i32 %84, -1
  store i32 %85, i32* %8, align 4
  br label %57

86:                                               ; preds = %57
  %87 = load i32, i32* %12, align 4
  %88 = load i32, i32* %10, align 4
  %89 = sub nsw i32 %87, %88
  %90 = add nsw i32 %89, 1
  %91 = load i32, i32* %13, align 4
  %92 = load i32, i32* %11, align 4
  %93 = sub nsw i32 %91, %92
  %94 = add nsw i32 %93, 1
  %95 = mul nsw i32 %90, %94
  %96 = load i32, i32* %12, align 4
  %97 = load i32, i32* %10, align 4
  %98 = sub nsw i32 %96, %97
  %99 = load i32, i32* %13, align 4
  %100 = add nsw i32 %98, %99
  %101 = load i32, i32* %11, align 4
  %102 = sub nsw i32 %100, %101
  %103 = mul nsw i32 %102, 2
  %104 = sub nsw i32 %95, %103
  store i32 %104, i32* %14, align 4
  %105 = load i32, i32* %14, align 4
  %106 = call i32 (i8*, ...) @printf(i8* getelementptr inbounds ([4 x i8], [4 x i8]* @.str.1, i64 0, i64 0), i32 %105)
  ret i32 0
}

declare dso_local i32 @__isoc99_scanf(i8*, ...) #1

declare dso_local i32 @printf(i8*, ...) #1


!llvm.module.flags = !{!0}
!llvm.ident = !{!1}

!0 = !{i32 1, !"wchar_size", i32 4}
!1 = !{!"clang version 10.0.0-4ubuntu1 "}
